target datalayout = "e-m:e-p270:32:32-p271:32:32-p272:64:64-i64:64-i128:128-f80:128-n8:16:32:64-S128"
target triple = "x86_64-pc-linux-gnu"

%struct.UDataInfo = type { i16, i16, i8, i8, i8, i8, [4 x i8], [4 x i8], [4 x i8] }
%struct.DataHeader = type { %struct.MappedData, %struct.UDataInfo }
%struct.MappedData = type { i16, i8, i8 }
%"class.icu_77::Package" = type <{ [64 x i8], [64 x i8], ptr, [1024 x i8], i32, i32, i8, i8, i8, i8, i32, i32, [4 x i8], ptr, i32, i32, [100000 x i8], [100000 x i8], i32, [4 x i8], ptr, ptr, i32, i32, i32, i8, [3 x i8] }>

@_ZL8dataInfo = internal constant %struct.UDataInfo { i16 20, i16 0, i8 0, i8 0, i8 2, i8 0, [4 x i8] c"CmnD", [4 x i8] c"\01\00\00\00", [4 x i8] c"\03\00\00\00" }, align 2

; Function Attrs: mustprogress nounwind uwtable
define void @_ZN6icu_777PackageC2Ev(ptr noundef nonnull align 8 dereferenceable(201237) %0) unnamed_addr #3 align 2 {
  %2 = alloca ptr, align 8
  %3 = alloca ptr, align 8
  %4 = alloca i32, align 4
  store ptr %0, ptr %2, align 8, !tbaa !26
  %5 = load ptr, ptr %2, align 8
  %6 = getelementptr inbounds nuw %"class.icu_77::Package", ptr %5, i32 0, i32 8
  store i8 0, ptr %6, align 2, !tbaa !28
  %7 = getelementptr inbounds nuw %"class.icu_77::Package", ptr %5, i32 0, i32 9
  store i8 0, ptr %7, align 1, !tbaa !31
  %8 = getelementptr inbounds nuw %"class.icu_77::Package", ptr %5, i32 0, i32 0
  %9 = getelementptr inbounds [64 x i8], ptr %8, i64 0, i64 0
  store i8 0, ptr %9, align 8, !tbaa !32
  %10 = getelementptr inbounds nuw %"class.icu_77::Package", ptr %5, i32 0, i32 1
  %11 = getelementptr inbounds [64 x i8], ptr %10, i64 0, i64 0
  store i8 0, ptr %11, align 8, !tbaa !32
  %12 = getelementptr inbounds nuw %"class.icu_77::Package", ptr %5, i32 0, i32 2
  store ptr null, ptr %12, align 8, !tbaa !33
  %13 = getelementptr inbounds nuw %"class.icu_77::Package", ptr %5, i32 0, i32 4
  store i32 0, ptr %13, align 8, !tbaa !34
  %14 = getelementptr inbounds nuw %"class.icu_77::Package", ptr %5, i32 0, i32 6
  store i8 0, ptr %14, align 8, !tbaa !35
  %15 = getelementptr inbounds nuw %"class.icu_77::Package", ptr %5, i32 0, i32 7
  store i8 0, ptr %15, align 1, !tbaa !36
  %16 = getelementptr inbounds nuw %"class.icu_77::Package", ptr %5, i32 0, i32 10
  store i32 0, ptr %16, align 4, !tbaa !37
  %17 = getelementptr inbounds nuw %"class.icu_77::Package", ptr %5, i32 0, i32 11
  store i32 0, ptr %17, align 8, !tbaa !38
  %18 = getelementptr inbounds nuw %"class.icu_77::Package", ptr %5, i32 0, i32 13
  store ptr null, ptr %18, align 8, !tbaa !39
  %19 = getelementptr inbounds nuw %"class.icu_77::Package", ptr %5, i32 0, i32 15
  store i32 0, ptr %19, align 4, !tbaa !40
  %20 = getelementptr inbounds nuw %"class.icu_77::Package", ptr %5, i32 0, i32 14
  store i32 0, ptr %20, align 8, !tbaa !41
  %21 = getelementptr inbounds nuw %"class.icu_77::Package", ptr %5, i32 0, i32 18
  store i32 0, ptr %21, align 8, !tbaa !42
  %22 = getelementptr inbounds nuw %"class.icu_77::Package", ptr %5, i32 0, i32 21
  store ptr null, ptr %22, align 8, !tbaa !43
  %23 = getelementptr inbounds nuw %"class.icu_77::Package", ptr %5, i32 0, i32 20
  store ptr null, ptr %23, align 8, !tbaa !44
  %24 = getelementptr inbounds nuw %"class.icu_77::Package", ptr %5, i32 0, i32 23
  store i32 0, ptr %24, align 4, !tbaa !45
  %25 = getelementptr inbounds nuw %"class.icu_77::Package", ptr %5, i32 0, i32 22
  store i32 0, ptr %25, align 8, !tbaa !46
  %26 = getelementptr inbounds nuw %"class.icu_77::Package", ptr %5, i32 0, i32 24
  store i32 -1, ptr %26, align 8, !tbaa !47
  call void @llvm.lifetime.start.p0(i64 8, ptr %3) #13
  %27 = getelementptr inbounds nuw %"class.icu_77::Package", ptr %5, i32 0, i32 3
  %28 = getelementptr inbounds [1024 x i8], ptr %27, i64 0, i64 0
  store ptr %28, ptr %3, align 8, !tbaa !12
  %29 = load ptr, ptr %3, align 8, !tbaa !12
  %30 = getelementptr inbounds nuw %struct.DataHeader, ptr %29, i32 0, i32 0
  %31 = getelementptr inbounds nuw %struct.MappedData, ptr %30, i32 0, i32 1
  store i8 -38, ptr %31, align 2, !tbaa !15
  %32 = load ptr, ptr %3, align 8, !tbaa !12
  %33 = getelementptr inbounds nuw %struct.DataHeader, ptr %32, i32 0, i32 0
  %34 = getelementptr inbounds nuw %struct.MappedData, ptr %33, i32 0, i32 2
  store i8 39, ptr %34, align 1, !tbaa !20
  %35 = load ptr, ptr %3, align 8, !tbaa !12
  %36 = getelementptr inbounds nuw %struct.DataHeader, ptr %35, i32 0, i32 1
  call void @llvm.memcpy.p0.p0.i64(ptr align 2 %36, ptr align 2 @_ZL8dataInfo, i64 20, i1 false)
  %37 = getelementptr inbounds nuw %"class.icu_77::Package", ptr %5, i32 0, i32 5
  store i32 24, ptr %37, align 4, !tbaa !48
  %38 = getelementptr inbounds nuw %"class.icu_77::Package", ptr %5, i32 0, i32 5
  %39 = load i32, ptr %38, align 4, !tbaa !48
  %40 = and i32 %39, 15
  %41 = icmp ne i32 %40, 0
  br i1 %41, label %42, label %60

42:                                               ; preds = %1
  call void @llvm.lifetime.start.p0(i64 4, ptr %4) #13
  %43 = getelementptr inbounds nuw %"class.icu_77::Package", ptr %5, i32 0, i32 5
  %44 = load i32, ptr %43, align 4, !tbaa !48
  %45 = add nsw i32 %44, 15
  %46 = and i32 %45, -16
  store i32 %46, ptr %4, align 4, !tbaa !8
  %47 = getelementptr inbounds nuw %"class.icu_77::Package", ptr %5, i32 0, i32 3
  %48 = getelementptr inbounds [1024 x i8], ptr %47, i64 0, i64 0
  %49 = getelementptr inbounds nuw %"class.icu_77::Package", ptr %5, i32 0, i32 5
  %50 = load i32, ptr %49, align 4, !tbaa !48
  %51 = sext i32 %50 to i64
  %52 = getelementptr inbounds i8, ptr %48, i64 %51
  %53 = load i32, ptr %4, align 4, !tbaa !8
  %54 = getelementptr inbounds nuw %"class.icu_77::Package", ptr %5, i32 0, i32 5
  %55 = load i32, ptr %54, align 4, !tbaa !48
  %56 = sub nsw i32 %53, %55
  %57 = sext i32 %56 to i64
  call void @llvm.memset.p0.i64(ptr align 1 %52, i8 0, i64 %57, i1 false)
  %58 = load i32, ptr %4, align 4, !tbaa !8
  %59 = getelementptr inbounds nuw %"class.icu_77::Package", ptr %5, i32 0, i32 5
  store i32 %58, ptr %59, align 4, !tbaa !48
  call void @llvm.lifetime.end.p0(i64 4, ptr %4) #13
  br label %60

60:                                               ; preds = %42, %1
  %61 = getelementptr inbounds nuw %"class.icu_77::Package", ptr %5, i32 0, i32 5
  %62 = load i32, ptr %61, align 4, !tbaa !48
  %63 = trunc i32 %62 to i16
  %64 = load ptr, ptr %3, align 8, !tbaa !12
  %65 = getelementptr inbounds nuw %struct.DataHeader, ptr %64, i32 0, i32 0
  %66 = getelementptr inbounds nuw %struct.MappedData, ptr %65, i32 0, i32 0
  store i16 %63, ptr %66, align 2, !tbaa !23
  call void @llvm.lifetime.end.p0(i64 8, ptr %3) #13
  ret void
}