; Function Attrs: mustprogress nofree norecurse nosync nounwind willreturn memory(argmem: readwrite) uwtable
define void @_ZN6icu_777PackageC2Ev(ptr noundef nonnull writeonly align 8 captures(none) dereferenceable(201237) initializes((0, 1), (64, 65), (128, 168), (1160, 1180), (1184, 1200), (201200, 201204), (201208, 201236)) %0) unnamed_addr #0 align 2 {
  store i8 0, ptr %0, align 8, !tbaa !19
  %2 = getelementptr inbounds nuw i8, ptr %0, i64 64
  store i8 0, ptr %2, align 8, !tbaa !19
  %3 = getelementptr inbounds nuw i8, ptr %0, i64 128
  store ptr null, ptr %3, align 8, !tbaa !20
  %4 = getelementptr inbounds nuw i8, ptr %0, i64 1160
  store i32 0, ptr %4, align 8, !tbaa !25
  %5 = getelementptr inbounds nuw i8, ptr %0, i64 1168
  %6 = getelementptr inbounds nuw i8, ptr %0, i64 1184
  %7 = getelementptr inbounds nuw i8, ptr %0, i64 201200
  store i32 0, ptr %7, align 8, !tbaa !26
  %8 = getelementptr inbounds nuw i8, ptr %0, i64 201208
  %9 = getelementptr inbounds nuw i8, ptr %0, i64 201232
  tail call void @llvm.memset.p0.i64(ptr noundef nonnull align 8 dereferenceable(12) %5, i8 0, i64 12, i1 false)
  tail call void @llvm.memset.p0.i64(ptr noundef nonnull align 8 dereferenceable(16) %6, i8 0, i64 16, i1 false)
  tail call void @llvm.memset.p0.i64(ptr noundef nonnull align 8 dereferenceable(24) %8, i8 0, i64 24, i1 false)
  store i32 -1, ptr %9, align 8, !tbaa !27
  %10 = getelementptr inbounds nuw i8, ptr %0, i64 138
  store i8 -38, ptr %10, align 2, !tbaa !7
  %11 = getelementptr inbounds nuw i8, ptr %0, i64 139
  store i8 39, ptr %11, align 1, !tbaa !12
  %12 = getelementptr inbounds nuw i8, ptr %0, i64 140
  tail call void @llvm.memcpy.p0.p0.i64(ptr noundef nonnull align 4 dereferenceable(20) %12, ptr noundef nonnull align 2 dereferenceable(20) @_ZL8dataInfo, i64 20, i1 false)
  %13 = getelementptr inbounds nuw i8, ptr %0, i64 1164
  %14 = getelementptr inbounds nuw i8, ptr %0, i64 160
  store i64 0, ptr %14, align 8
  store i32 32, ptr %13, align 4, !tbaa !28
  %15 = getelementptr inbounds nuw i8, ptr %0, i64 136
  store i16 32, ptr %15, align 8, !tbaa !15
  ret void
}